target datalayout = "e-m:e-p270:32:32-p271:32:32-p272:64:64-i64:64-i128:128-f80:128-n8:16:32:64-S128"
target triple = "x86_64-pc-linux-gnu"

%struct.archive_write = type { %struct.archive, i32, i64, i64, ptr, i64, ptr, ptr, ptr, ptr, ptr, i32, i32, ptr, ptr, ptr, ptr, ptr, ptr, ptr, ptr, ptr, ptr, ptr, ptr, ptr, ptr }
%struct.archive = type { i32, i32, ptr, i32, ptr, i32, i32, ptr, %struct.archive_string, ptr, i32, i32, ptr, ptr, i64, i64, i64, i8, i64 }
%struct.archive_string = type { ptr, i64, i64 }
%struct.shar = type { i32, i32, ptr, i32, ptr, [45 x i8], i64, i32, %struct.archive_string, %struct.archive_string }

@.str.9 = private unnamed_addr constant [14 x i8] c"Out of memory\00", align 1
@.str.26 = private unnamed_addr constant [16 x i8] c"Buffer overflow\00", align 1

; Function Attrs: nounwind uwtable
define internal void @uuencode_group(ptr noundef %0, ptr noundef %1) #0 {
  %3 = alloca ptr, align 8
  %4 = alloca ptr, align 8
  %5 = alloca ptr, align 8
  %6 = alloca i32, align 4
  store ptr %0, ptr %3, align 8, !tbaa !43
  store ptr %1, ptr %4, align 8, !tbaa !43
  call void @llvm.lifetime.start.p0(i64 8, ptr %5) #7
  %7 = load ptr, ptr %3, align 8, !tbaa !43
  store ptr %7, ptr %5, align 8, !tbaa !43
  call void @llvm.lifetime.start.p0(i64 4, ptr %6) #7
  %8 = load ptr, ptr %5, align 8, !tbaa !43
  %9 = getelementptr inbounds i8, ptr %8, i64 0
  %10 = load i8, ptr %9, align 1, !tbaa !44
  %11 = zext i8 %10 to i32
  %12 = shl i32 %11, 16
  %13 = load ptr, ptr %5, align 8, !tbaa !43
  %14 = getelementptr inbounds i8, ptr %13, i64 1
  %15 = load i8, ptr %14, align 1, !tbaa !44
  %16 = zext i8 %15 to i32
  %17 = shl i32 %16, 8
  %18 = or i32 %12, %17
  %19 = load ptr, ptr %5, align 8, !tbaa !43
  %20 = getelementptr inbounds i8, ptr %19, i64 2
  %21 = load i8, ptr %20, align 1, !tbaa !44
  %22 = zext i8 %21 to i32
  %23 = or i32 %18, %22
  store i32 %23, ptr %6, align 4, !tbaa !11
  %24 = load i32, ptr %6, align 4, !tbaa !11
  %25 = ashr i32 %24, 18
  %26 = and i32 63, %25
  %27 = icmp ne i32 %26, 0
  br i1 %27, label %28, label %34

28:                                               ; preds = %2
  %29 = load i32, ptr %6, align 4, !tbaa !11
  %30 = ashr i32 %29, 18
  %31 = and i32 63, %30
  %32 = and i32 %31, 63
  %33 = add nsw i32 %32, 32
  br label %35

34:                                               ; preds = %2
  br label %35

35:                                               ; preds = %34, %28
  %36 = phi i32 [ %33, %28 ], [ 96, %34 ]
  %37 = trunc i32 %36 to i8
  %38 = load ptr, ptr %4, align 8, !tbaa !43
  %39 = getelementptr inbounds i8, ptr %38, i64 0
  store i8 %37, ptr %39, align 1, !tbaa !44
  %40 = load i32, ptr %6, align 4, !tbaa !11
  %41 = ashr i32 %40, 12
  %42 = and i32 63, %41
  %43 = icmp ne i32 %42, 0
  br i1 %43, label %44, label %50

44:                                               ; preds = %35
  %45 = load i32, ptr %6, align 4, !tbaa !11
  %46 = ashr i32 %45, 12
  %47 = and i32 63, %46
  %48 = and i32 %47, 63
  %49 = add nsw i32 %48, 32
  br label %51

50:                                               ; preds = %35
  br label %51

51:                                               ; preds = %50, %44
  %52 = phi i32 [ %49, %44 ], [ 96, %50 ]
  %53 = trunc i32 %52 to i8
  %54 = load ptr, ptr %4, align 8, !tbaa !43
  %55 = getelementptr inbounds i8, ptr %54, i64 1
  store i8 %53, ptr %55, align 1, !tbaa !44
  %56 = load i32, ptr %6, align 4, !tbaa !11
  %57 = ashr i32 %56, 6
  %58 = and i32 63, %57
  %59 = icmp ne i32 %58, 0
  br i1 %59, label %60, label %66

60:                                               ; preds = %51
  %61 = load i32, ptr %6, align 4, !tbaa !11
  %62 = ashr i32 %61, 6
  %63 = and i32 63, %62
  %64 = and i32 %63, 63
  %65 = add nsw i32 %64, 32
  br label %67

66:                                               ; preds = %51
  br label %67

67:                                               ; preds = %66, %60
  %68 = phi i32 [ %65, %60 ], [ 96, %66 ]
  %69 = trunc i32 %68 to i8
  %70 = load ptr, ptr %4, align 8, !tbaa !43
  %71 = getelementptr inbounds i8, ptr %70, i64 2
  store i8 %69, ptr %71, align 1, !tbaa !44
  %72 = load i32, ptr %6, align 4, !tbaa !11
  %73 = and i32 63, %72
  %74 = icmp ne i32 %73, 0
  br i1 %74, label %75, label %80

75:                                               ; preds = %67
  %76 = load i32, ptr %6, align 4, !tbaa !11
  %77 = and i32 63, %76
  %78 = and i32 %77, 63
  %79 = add nsw i32 %78, 32
  br label %81

80:                                               ; preds = %67
  br label %81

81:                                               ; preds = %80, %75
  %82 = phi i32 [ %79, %75 ], [ 96, %80 ]
  %83 = trunc i32 %82 to i8
  %84 = load ptr, ptr %4, align 8, !tbaa !43
  %85 = getelementptr inbounds i8, ptr %84, i64 3
  store i8 %83, ptr %85, align 1, !tbaa !44
  call void @llvm.lifetime.end.p0(i64 4, ptr %6) #7
  call void @llvm.lifetime.end.p0(i64 8, ptr %5) #7
  ret void
}

; Function Attrs: nounwind uwtable
define internal i32 @_uuencode_line(ptr noundef %0, ptr noundef %1, ptr noundef %2, i64 noundef %3) #0 {
  %5 = alloca i32, align 4
  %6 = alloca ptr, align 8
  %7 = alloca ptr, align 8
  %8 = alloca ptr, align 8
  %9 = alloca i64, align 8
  %10 = alloca ptr, align 8
  %11 = alloca i64, align 8
  %12 = alloca i32, align 4
  %13 = alloca [3 x i8], align 1
  store ptr %0, ptr %6, align 8, !tbaa !9
  store ptr %1, ptr %7, align 8, !tbaa !22
  store ptr %2, ptr %8, align 8, !tbaa !43
  store i64 %3, ptr %9, align 8, !tbaa !51
  call void @llvm.lifetime.start.p0(i64 8, ptr %10) #7
  call void @llvm.lifetime.start.p0(i64 8, ptr %11) #7
  %14 = load ptr, ptr %7, align 8, !tbaa !22
  %15 = getelementptr inbounds nuw %struct.shar, ptr %14, i32 0, i32 8
  %16 = getelementptr inbounds nuw %struct.archive_string, ptr %15, i32 0, i32 1
  %17 = load i64, ptr %16, align 8, !tbaa !27
  %18 = add i64 %17, 62
  store i64 %18, ptr %11, align 8, !tbaa !51
  %19 = load ptr, ptr %7, align 8, !tbaa !22
  %20 = getelementptr inbounds nuw %struct.shar, ptr %19, i32 0, i32 8
  %21 = load i64, ptr %11, align 8, !tbaa !51
  %22 = call ptr @archive_string_ensure(ptr noundef %20, i64 noundef %21)
  %23 = icmp eq ptr %22, null
  br i1 %23, label %24, label %27

24:                                               ; preds = %4
  %25 = load ptr, ptr %6, align 8, !tbaa !9
  %26 = getelementptr inbounds nuw %struct.archive_write, ptr %25, i32 0, i32 0
  call void (ptr, i32, ptr, ...) @archive_set_error(ptr noundef %26, i32 noundef 12, ptr noundef @.str.9)
  store i32 -30, ptr %5, align 4
  store i32 1, ptr %12, align 4
  br label %116

27:                                               ; preds = %4
  %28 = load ptr, ptr %7, align 8, !tbaa !22
  %29 = getelementptr inbounds nuw %struct.shar, ptr %28, i32 0, i32 8
  %30 = getelementptr inbounds nuw %struct.archive_string, ptr %29, i32 0, i32 0
  %31 = load ptr, ptr %30, align 8, !tbaa !24
  %32 = load ptr, ptr %7, align 8, !tbaa !22
  %33 = getelementptr inbounds nuw %struct.shar, ptr %32, i32 0, i32 8
  %34 = getelementptr inbounds nuw %struct.archive_string, ptr %33, i32 0, i32 1
  %35 = load i64, ptr %34, align 8, !tbaa !27
  %36 = getelementptr inbounds nuw i8, ptr %31, i64 %35
  store ptr %36, ptr %10, align 8, !tbaa !43
  %37 = load i64, ptr %9, align 8, !tbaa !51
  %38 = icmp ne i64 %37, 0
  br i1 %38, label %39, label %43

39:                                               ; preds = %27
  %40 = load i64, ptr %9, align 8, !tbaa !51
  %41 = and i64 %40, 63
  %42 = add i64 %41, 32
  br label %44

43:                                               ; preds = %27
  br label %44

44:                                               ; preds = %43, %39
  %45 = phi i64 [ %42, %39 ], [ 96, %43 ]
  %46 = trunc i64 %45 to i8
  %47 = load ptr, ptr %10, align 8, !tbaa !43
  %48 = getelementptr inbounds nuw i8, ptr %47, i32 1
  store ptr %48, ptr %10, align 8, !tbaa !43
  store i8 %46, ptr %47, align 1, !tbaa !44
  br label %49

49:                                               ; preds = %52, %44
  %50 = load i64, ptr %9, align 8, !tbaa !51
  %51 = icmp uge i64 %50, 3
  br i1 %51, label %52, label %61

52:                                               ; preds = %49
  %53 = load ptr, ptr %8, align 8, !tbaa !43
  %54 = load ptr, ptr %10, align 8, !tbaa !43
  call void @uuencode_group(ptr noundef %53, ptr noundef %54)
  %55 = load i64, ptr %9, align 8, !tbaa !51
  %56 = sub i64 %55, 3
  store i64 %56, ptr %9, align 8, !tbaa !51
  %57 = load ptr, ptr %8, align 8, !tbaa !43
  %58 = getelementptr inbounds i8, ptr %57, i64 3
  store ptr %58, ptr %8, align 8, !tbaa !43
  %59 = load ptr, ptr %10, align 8, !tbaa !43
  %60 = getelementptr inbounds i8, ptr %59, i64 4
  store ptr %60, ptr %10, align 8, !tbaa !43
  br label %49, !llvm.loop !58

61:                                               ; preds = %49
  %62 = load i64, ptr %9, align 8, !tbaa !51
  %63 = icmp ne i64 %62, 0
  br i1 %63, label %64, label %84

64:                                               ; preds = %61
  call void @llvm.lifetime.start.p0(i64 3, ptr %13) #7
  %65 = load ptr, ptr %8, align 8, !tbaa !43
  %66 = getelementptr inbounds i8, ptr %65, i64 0
  %67 = load i8, ptr %66, align 1, !tbaa !44
  %68 = getelementptr inbounds [3 x i8], ptr %13, i64 0, i64 0
  store i8 %67, ptr %68, align 1, !tbaa !44
  %69 = load i64, ptr %9, align 8, !tbaa !51
  %70 = icmp eq i64 %69, 1
  br i1 %70, label %71, label %73

71:                                               ; preds = %64
  %72 = getelementptr inbounds [3 x i8], ptr %13, i64 0, i64 1
  store i8 0, ptr %72, align 1, !tbaa !44
  br label %78

73:                                               ; preds = %64
  %74 = load ptr, ptr %8, align 8, !tbaa !43
  %75 = getelementptr inbounds i8, ptr %74, i64 1
  %76 = load i8, ptr %75, align 1, !tbaa !44
  %77 = getelementptr inbounds [3 x i8], ptr %13, i64 0, i64 1
  store i8 %76, ptr %77, align 1, !tbaa !44
  br label %78

78:                                               ; preds = %73, %71
  %79 = getelementptr inbounds [3 x i8], ptr %13, i64 0, i64 2
  store i8 0, ptr %79, align 1, !tbaa !44
  %80 = getelementptr inbounds [3 x i8], ptr %13, i64 0, i64 0
  %81 = load ptr, ptr %10, align 8, !tbaa !43
  call void @uuencode_group(ptr noundef %80, ptr noundef %81)
  %82 = load ptr, ptr %10, align 8, !tbaa !43
  %83 = getelementptr inbounds i8, ptr %82, i64 4
  store ptr %83, ptr %10, align 8, !tbaa !43
  call void @llvm.lifetime.end.p0(i64 3, ptr %13) #7
  br label %84

84:                                               ; preds = %78, %61
  %85 = load ptr, ptr %10, align 8, !tbaa !43
  %86 = getelementptr inbounds nuw i8, ptr %85, i32 1
  store ptr %86, ptr %10, align 8, !tbaa !43
  store i8 10, ptr %85, align 1, !tbaa !44
  %87 = load ptr, ptr %10, align 8, !tbaa !43
  %88 = load ptr, ptr %7, align 8, !tbaa !22
  %89 = getelementptr inbounds nuw %struct.shar, ptr %88, i32 0, i32 8
  %90 = getelementptr inbounds nuw %struct.archive_string, ptr %89, i32 0, i32 0
  %91 = load ptr, ptr %90, align 8, !tbaa !24
  %92 = ptrtoint ptr %87 to i64
  %93 = ptrtoint ptr %91 to i64
  %94 = sub i64 %92, %93
  %95 = load ptr, ptr %7, align 8, !tbaa !22
  %96 = getelementptr inbounds nuw %struct.shar, ptr %95, i32 0, i32 8
  %97 = getelementptr inbounds nuw %struct.archive_string, ptr %96, i32 0, i32 1
  %98 = load i64, ptr %97, align 8, !tbaa !27
  %99 = add i64 %98, 62
  %100 = icmp sgt i64 %94, %99
  br i1 %100, label %101, label %104

101:                                              ; preds = %84
  %102 = load ptr, ptr %6, align 8, !tbaa !9
  %103 = getelementptr inbounds nuw %struct.archive_write, ptr %102, i32 0, i32 0
  call void (ptr, i32, ptr, ...) @archive_set_error(ptr noundef %103, i32 noundef -1, ptr noundef @.str.26)
  store i32 -30, ptr %5, align 4
  store i32 1, ptr %12, align 4
  br label %116

104:                                              ; preds = %84
  %105 = load ptr, ptr %10, align 8, !tbaa !43
  %106 = load ptr, ptr %7, align 8, !tbaa !22
  %107 = getelementptr inbounds nuw %struct.shar, ptr %106, i32 0, i32 8
  %108 = getelementptr inbounds nuw %struct.archive_string, ptr %107, i32 0, i32 0
  %109 = load ptr, ptr %108, align 8, !tbaa !24
  %110 = ptrtoint ptr %105 to i64
  %111 = ptrtoint ptr %109 to i64
  %112 = sub i64 %110, %111
  %113 = load ptr, ptr %7, align 8, !tbaa !22
  %114 = getelementptr inbounds nuw %struct.shar, ptr %113, i32 0, i32 8
  %115 = getelementptr inbounds nuw %struct.archive_string, ptr %114, i32 0, i32 1
  store i64 %112, ptr %115, align 8, !tbaa !27
  store i32 0, ptr %5, align 4
  store i32 1, ptr %12, align 4
  br label %116

116:                                              ; preds = %104, %101, %24
  call void @llvm.lifetime.end.p0(i64 8, ptr %11) #7
  call void @llvm.lifetime.end.p0(i64 8, ptr %10) #7
  %117 = load i32, ptr %5, align 4
  ret i32 %117
}