; Function Attrs: nounwind uwtable
define internal fastcc range(i32 -30, 1) i32 @_uuencode_line(ptr noundef %0, ptr noundef %1, ptr noundef readonly captures(none) %2, i64 noundef range(i64 1, 0) %3) unnamed_addr #0 {
  %5 = getelementptr inbounds nuw i8, ptr %1, i64 96
  %6 = getelementptr inbounds nuw i8, ptr %1, i64 104
  %7 = load i64, ptr %6, align 8, !tbaa !40
  %8 = add i64 %7, 62
  %9 = tail call ptr @archive_string_ensure(ptr noundef nonnull %5, i64 noundef %8) #8
  %10 = icmp eq ptr %9, null
  br i1 %10, label %11, label %12

11:                                               ; preds = %4
  tail call void (ptr, i32, ptr, ...) @archive_set_error(ptr noundef %0, i32 noundef 12, ptr noundef nonnull @.str.9) #8
  br label %96

12:                                               ; preds = %4
  %13 = load ptr, ptr %5, align 8, !tbaa !39
  %14 = load i64, ptr %6, align 8, !tbaa !40
  %15 = getelementptr inbounds nuw i8, ptr %13, i64 %14
  %16 = trunc i64 %3 to i8
  %17 = and i8 %16, 63
  %18 = add nuw nsw i8 %17, 32
  %19 = getelementptr inbounds nuw i8, ptr %15, i64 1
  store i8 %18, ptr %15, align 1, !tbaa !30
  %20 = icmp ugt i64 %3, 2
  br i1 %20, label %.lr.ph, label %._crit_edge.thread

.lr.ph:                                           ; preds = %12, %.lr.ph
  %.02939 = phi ptr [ %55, %.lr.ph ], [ %19, %12 ]
  %.03038 = phi i64 [ %53, %.lr.ph ], [ %3, %12 ]
  %.03137 = phi ptr [ %54, %.lr.ph ], [ %2, %12 ]
  %21 = load i8, ptr %.03137, align 1, !tbaa !30
  %22 = zext i8 %21 to i32
  %23 = shl nuw nsw i32 %22, 16
  %24 = getelementptr inbounds nuw i8, ptr %.03137, i64 1
  %25 = load i8, ptr %24, align 1, !tbaa !30
  %26 = zext i8 %25 to i32
  %27 = shl nuw nsw i32 %26, 8
  %28 = getelementptr inbounds nuw i8, ptr %.03137, i64 2
  %29 = load i8, ptr %28, align 1, !tbaa !30
  %30 = zext i8 %29 to i32
  %31 = or disjoint i32 %27, %30
  %32 = or disjoint i32 %27, %23
  %.not.i = icmp ult i8 %21, 4
  %33 = lshr i8 %21, 2
  %34 = add nuw nsw i8 %33, 32
  %35 = select i1 %.not.i, i8 96, i8 %34
  store i8 %35, ptr %.02939, align 1, !tbaa !30
  %36 = lshr i32 %32, 12
  %37 = and i32 %36, 63
  %.not17.i = icmp eq i32 %37, 0
  %38 = trunc nuw nsw i32 %37 to i8
  %39 = add nuw nsw i8 %38, 32
  %40 = select i1 %.not17.i, i8 96, i8 %39
  %41 = getelementptr inbounds nuw i8, ptr %.02939, i64 1
  store i8 %40, ptr %41, align 1, !tbaa !30
  %42 = lshr i32 %31, 6
  %43 = and i32 %42, 63
  %.not18.i = icmp eq i32 %43, 0
  %44 = trunc nuw nsw i32 %43 to i8
  %45 = add nuw nsw i8 %44, 32
  %46 = select i1 %.not18.i, i8 96, i8 %45
  %47 = getelementptr inbounds nuw i8, ptr %.02939, i64 2
  store i8 %46, ptr %47, align 1, !tbaa !30
  %48 = and i32 %30, 63
  %.not19.i = icmp eq i32 %48, 0
  %49 = trunc nuw nsw i32 %48 to i8
  %50 = add nuw nsw i8 %49, 32
  %51 = select i1 %.not19.i, i8 96, i8 %50
  %52 = getelementptr inbounds nuw i8, ptr %.02939, i64 3
  store i8 %51, ptr %52, align 1, !tbaa !30
  %53 = add i64 %.03038, -3
  %54 = getelementptr inbounds nuw i8, ptr %.03137, i64 3
  %55 = getelementptr inbounds nuw i8, ptr %.02939, i64 4
  %56 = icmp ugt i64 %53, 2
  br i1 %56, label %.lr.ph, label %._crit_edge, !llvm.loop !43

._crit_edge:                                      ; preds = %.lr.ph
  %.not = icmp eq i64 %53, 0
  br i1 %.not, label %85, label %._crit_edge.thread

._crit_edge.thread:                               ; preds = %12, %._crit_edge
  %.029.lcssa50 = phi ptr [ %55, %._crit_edge ], [ %19, %12 ]
  %.030.lcssa49 = phi i64 [ %53, %._crit_edge ], [ %3, %12 ]
  %.031.lcssa48 = phi ptr [ %54, %._crit_edge ], [ %2, %12 ]
  %57 = load i8, ptr %.031.lcssa48, align 1, !tbaa !30
  %58 = icmp eq i64 %.030.lcssa49, 1
  br i1 %58, label %64, label %59

59:                                               ; preds = %._crit_edge.thread
  %60 = getelementptr inbounds nuw i8, ptr %.031.lcssa48, i64 1
  %61 = load i8, ptr %60, align 1, !tbaa !30
  %62 = zext i8 %61 to i32
  %63 = shl nuw nsw i32 %62, 8
  br label %64

64:                                               ; preds = %._crit_edge.thread, %59
  %.sroa.4.0 = phi i32 [ %63, %59 ], [ 0, %._crit_edge.thread ]
  %65 = zext i8 %57 to i32
  %66 = shl nuw nsw i32 %65, 16
  %67 = add nuw nsw i32 %.sroa.4.0, %66
  %.not.i33 = icmp ult i8 %57, 4
  %68 = lshr i8 %57, 2
  %69 = add nuw nsw i8 %68, 32
  %70 = select i1 %.not.i33, i8 96, i8 %69
  store i8 %70, ptr %.029.lcssa50, align 1, !tbaa !30
  %71 = lshr i32 %67, 12
  %72 = and i32 %71, 63
  %.not17.i34 = icmp eq i32 %72, 0
  %73 = trunc nuw nsw i32 %72 to i8
  %74 = add nuw nsw i8 %73, 32
  %75 = select i1 %.not17.i34, i8 96, i8 %74
  %76 = getelementptr inbounds nuw i8, ptr %.029.lcssa50, i64 1
  store i8 %75, ptr %76, align 1, !tbaa !30
  %77 = lshr exact i32 %.sroa.4.0, 6
  %78 = and i32 %77, 60
  %.not18.i35 = icmp eq i32 %78, 0
  %79 = trunc nuw nsw i32 %78 to i8
  %80 = add nuw nsw i8 %79, 32
  %81 = select i1 %.not18.i35, i8 96, i8 %80
  %82 = getelementptr inbounds nuw i8, ptr %.029.lcssa50, i64 2
  store i8 %81, ptr %82, align 1, !tbaa !30
  %83 = getelementptr inbounds nuw i8, ptr %.029.lcssa50, i64 3
  store i8 96, ptr %83, align 1, !tbaa !30
  %84 = getelementptr inbounds nuw i8, ptr %.029.lcssa50, i64 4
  br label %85

85:                                               ; preds = %64, %._crit_edge
  %.1 = phi ptr [ %84, %64 ], [ %55, %._crit_edge ]
  %86 = getelementptr inbounds nuw i8, ptr %.1, i64 1
  store i8 10, ptr %.1, align 1, !tbaa !30
  %87 = load ptr, ptr %5, align 8, !tbaa !39
  %88 = ptrtoint ptr %86 to i64
  %89 = ptrtoint ptr %87 to i64
  %90 = sub i64 %88, %89
  %91 = load i64, ptr %6, align 8, !tbaa !40
  %92 = add i64 %91, 62
  %93 = icmp sgt i64 %90, %92
  br i1 %93, label %94, label %95

94:                                               ; preds = %85
  tail call void (ptr, i32, ptr, ...) @archive_set_error(ptr noundef %0, i32 noundef -1, ptr noundef nonnull @.str.26) #8
  br label %96

95:                                               ; preds = %85
  store i64 %90, ptr %6, align 8, !tbaa !40
  br label %96

96:                                               ; preds = %95, %94, %11
  %.0 = phi i32 [ -30, %11 ], [ -30, %94 ], [ 0, %95 ]
  ret i32 %.0
}